; Function Attrs: mustprogress nounwind uwtable
define void @_ZN4base24GlobalHistogramAllocatorD2Ev(ptr noundef nonnull align 8 dereferenceable(192) initializes((0, 8)) %0) unnamed_addr #2 align 2 personality ptr @__gxx_personality_v0 {
  store ptr getelementptr inbounds nuw inrange(-16, 16) (i8, ptr @_ZTVN4base24GlobalHistogramAllocatorE, i64 16), ptr %0, align 8, !tbaa !67
  %2 = getelementptr inbounds nuw i8, ptr %0, i64 160
  tail call void @_ZN4base8FilePathD1Ev(ptr noundef nonnull align 8 dereferenceable(32) %2) #21
  store ptr getelementptr inbounds nuw inrange(-16, 16) (i8, ptr @_ZTVN4base28PersistentHistogramAllocatorE, i64 16), ptr %0, align 8, !tbaa !67
  %3 = getelementptr inbounds nuw i8, ptr %0, i64 16
  tail call void @_ZN4base36PersistentSparseHistogramDataManagerD1Ev(ptr noundef nonnull align 8 dereferenceable(112) %3) #21
  %4 = getelementptr inbounds nuw i8, ptr %0, i64 8
  %5 = load ptr, ptr %4, align 8, !tbaa !61
  %.not.i.i = icmp eq ptr %5, null
  br i1 %.not.i.i, label %_ZN4base28PersistentHistogramAllocatorD2Ev.exit, label %_ZNKSt14default_deleteIN4base25PersistentMemoryAllocatorEEclEPS1_.exit.i.i

_ZNKSt14default_deleteIN4base25PersistentMemoryAllocatorEEclEPS1_.exit.i.i: ; preds = %1
  %6 = load ptr, ptr %5, align 8, !tbaa !67
  %7 = getelementptr inbounds nuw i8, ptr %6, i64 8
  %8 = load ptr, ptr %7, align 8
  tail call void %8(ptr noundef nonnull align 8 dereferenceable(48) %5) #21
  br label %_ZN4base28PersistentHistogramAllocatorD2Ev.exit

_ZN4base28PersistentHistogramAllocatorD2Ev.exit:  ; preds = %1, %_ZNKSt14default_deleteIN4base25PersistentMemoryAllocatorEEclEPS1_.exit.i.i
  store ptr null, ptr %4, align 8, !tbaa !61
  ret void
}